target datalayout = "e-m:e-p270:32:32-p271:32:32-p272:64:64-i64:64-i128:128-f80:128-n8:16:32:64-S128"
target triple = "x86_64-pc-linux-gnu"

%struct.PJconsts = type { ptr, ptr, ptr, ptr, ptr, ptr, ptr, ptr, ptr, ptr, ptr, ptr, i32, ptr, ptr, ptr, ptr, ptr, ptr, ptr, ptr, double, double, double, double, double, double, double, double, double, double, double, double, double, double, double, double, double, double, double, double, double, double, i32, i32, i32, i32, i32, i32, i32, i32, i32, i32, i32, ptr, ptr, ptr, ptr, ptr, ptr, double, double, double, double, double, double, double, double, double, double, double, i32, [7 x double], i32, ptr, ptr, double, double, i32, [4 x i8], %"class.std::shared_ptr", i8, double, i8, %"class.std::__cxx11::basic_string", %"class.std::__cxx11::basic_string", %"class.std::__cxx11::basic_string", i8, %"class.std::vector", i32, %"class.std::vector.3", i32, i8, i8, i8, ptr }
%"class.std::shared_ptr" = type { %"class.std::__shared_ptr" }
%"class.std::__shared_ptr" = type { ptr, %"class.std::__shared_count" }
%"class.std::__shared_count" = type { ptr }
%"class.std::__cxx11::basic_string" = type { %"struct.std::__cxx11::basic_string<char>::_Alloc_hider", i64, %union.anon }
%"struct.std::__cxx11::basic_string<char>::_Alloc_hider" = type { ptr }
%union.anon = type { i64, [8 x i8] }
%"class.std::vector" = type { %"struct.std::_Vector_base" }
%"struct.std::_Vector_base" = type { %"struct.std::_Vector_base<osgeo::proj::operation::GridDescription, std::allocator<osgeo::proj::operation::GridDescription>>::_Vector_impl" }
%"struct.std::_Vector_base<osgeo::proj::operation::GridDescription, std::allocator<osgeo::proj::operation::GridDescription>>::_Vector_impl" = type { %"struct.std::_Vector_base<osgeo::proj::operation::GridDescription, std::allocator<osgeo::proj::operation::GridDescription>>::_Vector_impl_data" }
%"struct.std::_Vector_base<osgeo::proj::operation::GridDescription, std::allocator<osgeo::proj::operation::GridDescription>>::_Vector_impl_data" = type { ptr, ptr, ptr }
%"class.std::vector.3" = type { %"struct.std::_Vector_base.4" }
%"struct.std::_Vector_base.4" = type { %"struct.std::_Vector_base<PJCoordOperation, std::allocator<PJCoordOperation>>::_Vector_impl" }
%"struct.std::_Vector_base<PJCoordOperation, std::allocator<PJCoordOperation>>::_Vector_impl" = type { %"struct.std::_Vector_base<PJCoordOperation, std::allocator<PJCoordOperation>>::_Vector_impl_data" }
%"struct.std::_Vector_base<PJCoordOperation, std::allocator<PJCoordOperation>>::_Vector_impl_data" = type { ptr, ptr, ptr }
%"struct.pj_imoll_ns::pj_imoll_data" = type { [6 x ptr], double, double, double, double }

; Function Attrs: mustprogress uwtable
define internal noundef ptr @_ZL19pj_imoll_destructorP8PJconstsi(ptr noundef %0, i32 noundef %1) #0 {
  %3 = alloca ptr, align 8
  %4 = alloca ptr, align 8
  %5 = alloca i32, align 4
  %6 = alloca i32, align 4
  %7 = alloca i32, align 4
  %8 = alloca ptr, align 8
  store ptr %0, ptr %4, align 8, !tbaa !3
  store i32 %1, ptr %5, align 4, !tbaa !54
  call void @llvm.lifetime.start.p0(i64 4, ptr %6) #7
  %9 = load ptr, ptr %4, align 8, !tbaa !3
  %10 = icmp eq ptr null, %9
  br i1 %10, label %11, label %12

11:                                               ; preds = %2
  store ptr null, ptr %3, align 8
  store i32 1, ptr %7, align 4
  br label %61

12:                                               ; preds = %2
  %13 = load ptr, ptr %4, align 8, !tbaa !3
  %14 = getelementptr inbounds nuw %struct.PJconsts, ptr %13, i32 0, i32 11
  %15 = load ptr, ptr %14, align 8, !tbaa !43
  %16 = icmp eq ptr null, %15
  br i1 %16, label %17, label %21

17:                                               ; preds = %12
  %18 = load ptr, ptr %4, align 8, !tbaa !3
  %19 = load i32, ptr %5, align 4, !tbaa !54
  %20 = call noundef ptr @_Z21pj_default_destructorP8PJconstsi(ptr noundef %18, i32 noundef %19)
  store ptr %20, ptr %3, align 8
  store i32 1, ptr %7, align 4
  br label %61

21:                                               ; preds = %12
  call void @llvm.lifetime.start.p0(i64 8, ptr %8) #7
  %22 = load ptr, ptr %4, align 8, !tbaa !3
  %23 = getelementptr inbounds nuw %struct.PJconsts, ptr %22, i32 0, i32 11
  %24 = load ptr, ptr %23, align 8, !tbaa !43
  store ptr %24, ptr %8, align 8, !tbaa !41
  store i32 0, ptr %6, align 4, !tbaa !54
  br label %25

25:                                               ; preds = %54, %21
  %26 = load i32, ptr %6, align 4, !tbaa !54
  %27 = icmp slt i32 %26, 6
  br i1 %27, label %28, label %57

28:                                               ; preds = %25
  %29 = load ptr, ptr %8, align 8, !tbaa !41
  %30 = getelementptr inbounds nuw %"struct.pj_imoll_ns::pj_imoll_data", ptr %29, i32 0, i32 0
  %31 = load i32, ptr %6, align 4, !tbaa !54
  %32 = sext i32 %31 to i64
  %33 = getelementptr inbounds [6 x ptr], ptr %30, i64 0, i64 %32
  %34 = load ptr, ptr %33, align 8, !tbaa !3
  %35 = icmp ne ptr %34, null
  br i1 %35, label %36, label %53

36:                                               ; preds = %28
  %37 = load ptr, ptr %8, align 8, !tbaa !41
  %38 = getelementptr inbounds nuw %"struct.pj_imoll_ns::pj_imoll_data", ptr %37, i32 0, i32 0
  %39 = load i32, ptr %6, align 4, !tbaa !54
  %40 = sext i32 %39 to i64
  %41 = getelementptr inbounds [6 x ptr], ptr %38, i64 0, i64 %40
  %42 = load ptr, ptr %41, align 8, !tbaa !3
  %43 = getelementptr inbounds nuw %struct.PJconsts, ptr %42, i32 0, i32 19
  %44 = load ptr, ptr %43, align 8, !tbaa !52
  %45 = load ptr, ptr %8, align 8, !tbaa !41
  %46 = getelementptr inbounds nuw %"struct.pj_imoll_ns::pj_imoll_data", ptr %45, i32 0, i32 0
  %47 = load i32, ptr %6, align 4, !tbaa !54
  %48 = sext i32 %47 to i64
  %49 = getelementptr inbounds [6 x ptr], ptr %46, i64 0, i64 %48
  %50 = load ptr, ptr %49, align 8, !tbaa !3
  %51 = load i32, ptr %5, align 4, !tbaa !54
  %52 = call noundef ptr %44(ptr noundef %50, i32 noundef %51)
  br label %53

53:                                               ; preds = %36, %28
  br label %54

54:                                               ; preds = %53
  %55 = load i32, ptr %6, align 4, !tbaa !54
  %56 = add nsw i32 %55, 1
  store i32 %56, ptr %6, align 4, !tbaa !54
  br label %25, !llvm.loop !60

57:                                               ; preds = %25
  %58 = load ptr, ptr %4, align 8, !tbaa !3
  %59 = load i32, ptr %5, align 4, !tbaa !54
  %60 = call noundef ptr @_Z21pj_default_destructorP8PJconstsi(ptr noundef %58, i32 noundef %59)
  store ptr %60, ptr %3, align 8
  store i32 1, ptr %7, align 4
  call void @llvm.lifetime.end.p0(i64 8, ptr %8) #7
  br label %61

61:                                               ; preds = %57, %17, %11
  call void @llvm.lifetime.end.p0(i64 4, ptr %6) #7
  %62 = load ptr, ptr %3, align 8
  ret ptr %62
}