; Function Attrs: mustprogress uwtable
define internal noundef ptr @_ZL19pj_imoll_destructorP8PJconstsi(ptr noundef %0, i32 noundef %1) #0 {
  %3 = icmp eq ptr %0, null
  br i1 %3, label %16, label %4

4:                                                ; preds = %2
  %5 = getelementptr inbounds nuw i8, ptr %0, i64 88
  %6 = load ptr, ptr %5, align 8, !tbaa !40
  %7 = icmp eq ptr %6, null
  br i1 %7, label %.sink.split, label %.preheader

.preheader:                                       ; preds = %4, %14
  %indvars.iv = phi i64 [ %indvars.iv.next, %14 ], [ 0, %4 ]
  %8 = getelementptr inbounds nuw [6 x ptr], ptr %6, i64 0, i64 %indvars.iv
  %9 = load ptr, ptr %8, align 8, !tbaa !41
  %.not = icmp eq ptr %9, null
  br i1 %.not, label %14, label %10

10:                                               ; preds = %.preheader
  %11 = getelementptr inbounds nuw i8, ptr %9, i64 152
  %12 = load ptr, ptr %11, align 8, !tbaa !46
  %13 = tail call noundef ptr %12(ptr noundef nonnull %9, i32 noundef %1)
  br label %14

14:                                               ; preds = %.preheader, %10
  %indvars.iv.next = add nuw nsw i64 %indvars.iv, 1
  %exitcond.not = icmp eq i64 %indvars.iv.next, 6
  br i1 %exitcond.not, label %.sink.split, label %.preheader, !llvm.loop !47

.sink.split:                                      ; preds = %14, %4
  %15 = tail call noundef ptr @_Z21pj_default_destructorP8PJconstsi(ptr noundef nonnull %0, i32 noundef %1)
  br label %16

16:                                               ; preds = %.sink.split, %2
  %.0 = phi ptr [ null, %2 ], [ %15, %.sink.split ]
  ret ptr %.0
}